target datalayout = "e-m:e-p270:32:32-p271:32:32-p272:64:64-i64:64-i128:128-f80:128-n8:16:32:64-S128"
target triple = "x86_64-pc-linux-gnu"

%struct._mp4ves_capability_t = type { ptr, ptr, ptr }

@.str.97 = private unnamed_addr constant [8 x i8] c"MP4V-ES\00", align 1
@proto_mp4ves = internal global i32 0, align 4
@mp4ves_handle = internal global ptr null, align 8
@.str.102 = private unnamed_addr constant [21 x i8] c"rtp_dyn_payload_type\00", align 1
@mp4ves_name_handle = internal global ptr null, align 8
@.str.103 = private unnamed_addr constant [14 x i8] c"h245.gef.name\00", align 1
@.str.104 = private unnamed_addr constant [17 x i8] c"h245.gef.content\00", align 1
@.str.105 = private unnamed_addr constant [7 x i8] c"rtp.pt\00", align 1
@.str.106 = private unnamed_addr constant [1 x i8] zeroinitializer, align 1

; Function Attrs: null_pointer_is_valid sspstrong uwtable
define hidden void @proto_reg_handoff_mp4ves() #0 {
  %1 = alloca ptr, align 8
  call void @llvm.lifetime.start.p0(i64 8, ptr %1) #6
  %2 = load ptr, ptr @mp4ves_handle, align 8
  call void @dissector_add_string(ptr noundef @.str.102, ptr noundef @.str.97, ptr noundef %2)
  %3 = load i32, ptr @proto_mp4ves, align 4
  %4 = call ptr @create_dissector_handle(ptr noundef @dissect_mp4ves_name, i32 noundef %3)
  store ptr %4, ptr @mp4ves_name_handle, align 8
  store ptr @mp4ves_capability_tab, ptr %1, align 8
  br label %5

5:                                                ; preds = %35, %0
  %6 = load ptr, ptr %1, align 8
  %7 = getelementptr inbounds nuw %struct._mp4ves_capability_t, ptr %6, i32 0, i32 0
  %8 = load ptr, ptr %7, align 8
  %9 = icmp ne ptr %8, null
  br i1 %9, label %10, label %38

10:                                               ; preds = %5
  %11 = load ptr, ptr %1, align 8
  %12 = getelementptr inbounds nuw %struct._mp4ves_capability_t, ptr %11, i32 0, i32 1
  %13 = load ptr, ptr %12, align 8
  %14 = icmp ne ptr %13, null
  br i1 %14, label %15, label %20

15:                                               ; preds = %10
  %16 = load ptr, ptr %1, align 8
  %17 = getelementptr inbounds nuw %struct._mp4ves_capability_t, ptr %16, i32 0, i32 0
  %18 = load ptr, ptr %17, align 8
  %19 = load ptr, ptr @mp4ves_name_handle, align 8
  call void @dissector_add_string(ptr noundef @.str.103, ptr noundef %18, ptr noundef %19)
  br label %20

20:                                               ; preds = %15, %10
  %21 = load ptr, ptr %1, align 8
  %22 = getelementptr inbounds nuw %struct._mp4ves_capability_t, ptr %21, i32 0, i32 2
  %23 = load ptr, ptr %22, align 8
  %24 = icmp ne ptr %23, null
  br i1 %24, label %25, label %34

25:                                               ; preds = %20
  %26 = load ptr, ptr %1, align 8
  %27 = getelementptr inbounds nuw %struct._mp4ves_capability_t, ptr %26, i32 0, i32 0
  %28 = load ptr, ptr %27, align 8
  %29 = load ptr, ptr %1, align 8
  %30 = getelementptr inbounds nuw %struct._mp4ves_capability_t, ptr %29, i32 0, i32 2
  %31 = load ptr, ptr %30, align 8
  %32 = load i32, ptr @proto_mp4ves, align 4
  %33 = call ptr @create_dissector_handle(ptr noundef %31, i32 noundef %32)
  call void @dissector_add_string(ptr noundef @.str.104, ptr noundef %28, ptr noundef %33)
  br label %34

34:                                               ; preds = %25, %20
  br label %35

35:                                               ; preds = %34
  %36 = load ptr, ptr %1, align 8
  %37 = getelementptr %struct._mp4ves_capability_t, ptr %36, i32 1
  store ptr %37, ptr %1, align 8
  br label %5, !llvm.loop !6

38:                                               ; preds = %5
  %39 = load ptr, ptr @mp4ves_handle, align 8
  call void @dissector_add_uint_range_with_preference(ptr noundef @.str.105, ptr noundef @.str.106, ptr noundef %39)
  call void @llvm.lifetime.end.p0(i64 8, ptr %1) #6
  ret void
}