; Function Attrs: null_pointer_is_valid sspstrong uwtable
define hidden void @proto_reg_handoff_mp4ves() local_unnamed_addr #0 {
.lr.ph.preheader:
  %0 = load ptr, ptr @mp4ves_handle, align 8
  tail call void @dissector_add_string(ptr noundef nonnull @.str.102, ptr noundef nonnull @.str.97, ptr noundef %0)
  %1 = load i32, ptr @proto_mp4ves, align 4
  %2 = tail call ptr @create_dissector_handle(ptr noundef nonnull @dissect_mp4ves_name, i32 noundef %1)
  store ptr %2, ptr @mp4ves_name_handle, align 8
  br label %.lr.ph

.lr.ph:                                           ; preds = %.lr.ph.preheader, %15
  %3 = phi ptr [ %17, %15 ], [ @.str.173, %.lr.ph.preheader ]
  %.012 = phi ptr [ %16, %15 ], [ @mp4ves_capability_tab, %.lr.ph.preheader ]
  %4 = getelementptr inbounds nuw i8, ptr %.012, i64 8
  %5 = load ptr, ptr %4, align 8
  %.not9 = icmp eq ptr %5, null
  br i1 %.not9, label %8, label %6

6:                                                ; preds = %.lr.ph
  %7 = load ptr, ptr @mp4ves_name_handle, align 8
  tail call void @dissector_add_string(ptr noundef nonnull @.str.103, ptr noundef nonnull %3, ptr noundef %7)
  br label %8

8:                                                ; preds = %6, %.lr.ph
  %9 = getelementptr inbounds nuw i8, ptr %.012, i64 16
  %10 = load ptr, ptr %9, align 8
  %.not10 = icmp eq ptr %10, null
  br i1 %.not10, label %15, label %11

11:                                               ; preds = %8
  %12 = load ptr, ptr %.012, align 8
  %13 = load i32, ptr @proto_mp4ves, align 4
  %14 = tail call ptr @create_dissector_handle(ptr noundef nonnull %10, i32 noundef %13)
  tail call void @dissector_add_string(ptr noundef nonnull @.str.104, ptr noundef %12, ptr noundef %14)
  br label %15

15:                                               ; preds = %8, %11
  %16 = getelementptr i8, ptr %.012, i64 24
  %17 = load ptr, ptr %16, align 8
  %.not = icmp eq ptr %17, null
  br i1 %.not, label %._crit_edge, label %.lr.ph, !llvm.loop !6

._crit_edge:                                      ; preds = %15
  %18 = load ptr, ptr @mp4ves_handle, align 8
  tail call void @dissector_add_uint_range_with_preference(ptr noundef nonnull @.str.105, ptr noundef nonnull @.str.106, ptr noundef %18)
  ret void
}